; Function Attrs: mustprogress nofree norecurse nosync nounwind willreturn memory(read, inaccessiblemem: none) uwtable
define dso_local ptr @_ZN4llvm17MachineBasicBlock14getFirstNonPHIEv(ptr noundef nonnull readonly align 8 dereferenceable(288) %0) local_unnamed_addr #8 align 2 {
  %2 = getelementptr inbounds nuw i8, ptr %0, i64 56
  %3 = getelementptr inbounds nuw i8, ptr %0, i64 48
  %.sroa.01.05 = load ptr, ptr %2, align 8
  %.not6 = icmp eq ptr %.sroa.01.05, %3
  br i1 %.not6, label %.critedge, label %.lr.ph

.lr.ph:                                           ; preds = %1, %6
  %.sroa.01.07 = phi ptr [ %.sroa.01.0, %6 ], [ %.sroa.01.05, %1 ]
  %4 = getelementptr inbounds nuw i8, ptr %.sroa.01.07, i64 68
  %5 = load i16, ptr %4, align 4
  switch i16 %5, label %.critedge [
    i16 65, label %6
    i16 0, label %6
  ]

6:                                                ; preds = %.lr.ph, %.lr.ph
  %7 = getelementptr inbounds nuw i8, ptr %.sroa.01.07, i64 8
  %.sroa.01.0 = load ptr, ptr %7, align 8
  %.not = icmp eq ptr %.sroa.01.0, %3
  br i1 %.not, label %.critedge, label %.lr.ph, !llvm.loop !52

.critedge:                                        ; preds = %6, %.lr.ph, %1
  %.sroa.01.0.lcssa = phi ptr [ %.sroa.01.05, %1 ], [ %.sroa.01.07, %.lr.ph ], [ %.sroa.01.0, %6 ]
  ret ptr %.sroa.01.0.lcssa
}